; Function Attrs: mustprogress nofree norecurse nosync nounwind memory(read, argmem: readwrite, inaccessiblemem: none) uwtable
define void @_ZN11OpenImageIO6v3_1_07Strutil15skip_whitespaceERNS0_17basic_string_viewIcSt11char_traitsIcEEE(ptr noundef nonnull align 8 captures(none) dereferenceable(16) %0) local_unnamed_addr #14 personality ptr @__gxx_personality_v0 {
  %2 = getelementptr inbounds nuw i8, ptr %0, i64 8
  %.promoted = load i64, ptr %2, align 8, !tbaa !64
  %.not4 = icmp eq i64 %.promoted, 0
  br i1 %.not4, label %.critedge, label %.lr.ph.preheader

.lr.ph.preheader:                                 ; preds = %1
  %.promoted3 = load ptr, ptr %0, align 8
  br label %.lr.ph

.lr.ph:                                           ; preds = %.lr.ph.preheader, %6
  %3 = phi i64 [ %8, %6 ], [ %.promoted, %.lr.ph.preheader ]
  %4 = phi ptr [ %7, %6 ], [ %.promoted3, %.lr.ph.preheader ]
  %5 = load i8, ptr %4, align 1, !tbaa !3
  switch i8 %5, label %.critedge [
    i8 32, label %6
    i8 10, label %6
    i8 9, label %6
    i8 13, label %6
  ]

6:                                                ; preds = %.lr.ph, %.lr.ph, %.lr.ph, %.lr.ph
  %7 = getelementptr inbounds nuw i8, ptr %4, i64 1
  store ptr %7, ptr %0, align 8, !tbaa !67
  %8 = add i64 %3, -1
  store i64 %8, ptr %2, align 8, !tbaa !64
  %.not = icmp eq i64 %8, 0
  br i1 %.not, label %.critedge, label %.lr.ph, !llvm.loop !79

.critedge:                                        ; preds = %6, %.lr.ph, %1
  ret void
}